; Function Attrs: mustprogress uwtable
define hidden noundef zeroext i1 @_ZN5arith6solver17check_delayed_eqsEv(ptr noundef nonnull align 8 dereferenceable(1144) %this) local_unnamed_addr #3 align 2 {
entry:
  %p = alloca %"struct.std::pair.409", align 8
  %m_delayed_eqs = getelementptr inbounds i8, ptr %this, i64 344
  %0 = load ptr, ptr %m_delayed_eqs, align 8
  %cmp.i = icmp eq ptr %0, null
  br i1 %cmp.i, label %return, label %_ZNK6vectorISt4pairIN3euf5th_eqEbELb0EjE5emptyEv.exit

_ZNK6vectorISt4pairIN3euf5th_eqEbELb0EjE5emptyEv.exit: ; preds = %entry
  %arrayidx.i = getelementptr inbounds i8, ptr %0, i64 -4
  %1 = load i32, ptr %arrayidx.i, align 4
  %cmp3.i = icmp eq i32 %1, 0
  br i1 %cmp3.i, label %return, label %if.end

if.end:                                           ; preds = %_ZNK6vectorISt4pairIN3euf5th_eqEbELb0EjE5emptyEv.exit
  %m_num_scopes.i = getelementptr inbounds i8, ptr %this, i64 104
  %2 = load i32, ptr %m_num_scopes.i, align 8
  %cmp.not1.i = icmp eq i32 %2, 0
  br i1 %cmp.not1.i, label %_ZN3euf13th_euf_solver10force_pushEv.exit, label %for.body.i

for.body.i:                                       ; preds = %if.end, %for.body.i
  %vtable.i = load ptr, ptr %this, align 8
  %vfn.i = getelementptr inbounds i8, ptr %vtable.i, i64 496
  %3 = load ptr, ptr %vfn.i, align 8
  tail call void %3(ptr noundef nonnull align 8 dereferenceable(108) %this)
  %4 = load i32, ptr %m_num_scopes.i, align 8
  %dec.i = add i32 %4, -1
  store i32 %dec.i, ptr %m_num_scopes.i, align 8
  %cmp.not.i = icmp eq i32 %dec.i, 0
  br i1 %cmp.not.i, label %_ZN3euf13th_euf_solver10force_pushEv.exit, label %for.body.i, !llvm.loop !25

_ZN3euf13th_euf_solver10force_pushEv.exit:        ; preds = %for.body.i, %if.end
  %second = getelementptr inbounds i8, ptr %p, i64 32
  %m_v1.i = getelementptr inbounds i8, ptr %p, i64 4
  %m_v2.i = getelementptr inbounds i8, ptr %p, i64 8
  br label %for.cond

for.cond:                                         ; preds = %for.inc, %_ZN3euf13th_euf_solver10force_pushEv.exit
  %indvars.iv = phi i64 [ %indvars.iv.next, %for.inc ], [ 0, %_ZN3euf13th_euf_solver10force_pushEv.exit ]
  %5 = load ptr, ptr %m_delayed_eqs, align 8
  %cmp.i7 = icmp eq ptr %5, null
  br i1 %cmp.i7, label %_ZNK6vectorISt4pairIN3euf5th_eqEbELb0EjE4sizeEv.exit, label %if.end.i

if.end.i:                                         ; preds = %for.cond
  %arrayidx.i8 = getelementptr inbounds i8, ptr %5, i64 -4
  %6 = load i32, ptr %arrayidx.i8, align 4
  br label %_ZNK6vectorISt4pairIN3euf5th_eqEbELb0EjE4sizeEv.exit

_ZNK6vectorISt4pairIN3euf5th_eqEbELb0EjE4sizeEv.exit: ; preds = %for.cond, %if.end.i
  %retval.0.i = phi i32 [ %6, %if.end.i ], [ 0, %for.cond ]
  %7 = zext i32 %retval.0.i to i64
  %cmp.not = icmp ult i64 %indvars.iv, %7
  br i1 %cmp.not, label %for.body, label %return

for.body:                                         ; preds = %_ZNK6vectorISt4pairIN3euf5th_eqEbELb0EjE4sizeEv.exit
  %arrayidx.i9 = getelementptr inbounds %"struct.std::pair.409", ptr %5, i64 %indvars.iv
  call void @llvm.memcpy.p0.p0.i64(ptr noundef nonnull align 8 dereferenceable(40) %p, ptr noundef nonnull align 8 dereferenceable(40) %arrayidx.i9, i64 40, i1 false)
  %8 = load i8, ptr %second, align 8
  %9 = and i8 %8, 1
  %tobool.not = icmp eq i8 %9, 0
  br i1 %tobool.not, label %if.else, label %if.then6

if.then6:                                         ; preds = %for.body
  %vtable = load ptr, ptr %this, align 8
  %vfn = getelementptr inbounds i8, ptr %vtable, i64 400
  %10 = load ptr, ptr %vfn, align 8
  call void %10(ptr noundef nonnull align 8 dereferenceable(1144) %this, ptr noundef nonnull align 8 dereferenceable(32) %p)
  br label %for.inc

if.else:                                          ; preds = %for.body
  %11 = load i32, ptr %m_v1.i, align 4
  %12 = load i32, ptr %m_v2.i, align 8
  %call9 = call noundef zeroext i1 @_ZN5arith6solver5is_eqEii(ptr noundef nonnull align 8 dereferenceable(1144) %this, i32 noundef %11, i32 noundef %12)
  br i1 %call9, label %if.then10, label %for.inc

if.then10:                                        ; preds = %if.else
  %13 = load i32, ptr %m_v1.i, align 4
  %14 = load i32, ptr %m_v2.i, align 8
  call void @_ZN5arith6solver14mk_diseq_axiomEii(ptr noundef nonnull align 8 dereferenceable(1144) %this, i32 noundef %13, i32 noundef %14)
  br label %return

for.inc:                                          ; preds = %if.then6, %if.else
  %indvars.iv.next = add nuw nsw i64 %indvars.iv, 1
  br label %for.cond, !llvm.loop !99

return:                                           ; preds = %_ZNK6vectorISt4pairIN3euf5th_eqEbELb0EjE4sizeEv.exit, %entry, %if.then10, %_ZNK6vectorISt4pairIN3euf5th_eqEbELb0EjE5emptyEv.exit
  %retval.0 = phi i1 [ true, %_ZNK6vectorISt4pairIN3euf5th_eqEbELb0EjE5emptyEv.exit ], [ false, %if.then10 ], [ true, %entry ], [ true, %_ZNK6vectorISt4pairIN3euf5th_eqEbELb0EjE4sizeEv.exit ]
  ret i1 %retval.0
}